; Function Attrs: nounwind uwtable
define ptr @l_Array_mapMUnsafe_map___at_Lean_Meta_MatcherApp_transform___spec__4___rarg___lambda__1___boxed(ptr noundef %0, ptr noundef %1, ptr noundef %2, ptr noundef %3, ptr noundef %4, ptr noundef %5) #1 {
  %7 = getelementptr i8, ptr %0, i64 8
  %.val13 = load i64, ptr %7, align 8, !tbaa !12
  %8 = ptrtoint ptr %0 to i64
  %9 = and i64 %8, 1
  %.not = icmp eq i64 %9, 0
  br i1 %.not, label %10, label %lean_dec.exit10

10:                                               ; preds = %6
  %11 = load i32, ptr %0, align 4, !tbaa !8
  %12 = icmp sgt i32 %11, 1
  br i1 %12, label %13, label %15, !prof !11

13:                                               ; preds = %10
  %14 = add nsw i32 %11, -1
  store i32 %14, ptr %0, align 4, !tbaa !8
  br label %lean_dec.exit10

15:                                               ; preds = %10
  %.not.i = icmp eq i32 %11, 0
  br i1 %.not.i, label %lean_dec.exit10, label %16

16:                                               ; preds = %15
  tail call void @lean_dec_ref_cold(ptr noundef nonnull %0) #4
  br label %lean_dec.exit10

lean_dec.exit10:                                  ; preds = %16, %15, %13, %6
  %17 = getelementptr i8, ptr %4, i64 8
  %.val = load i64, ptr %17, align 8, !tbaa !12
  %18 = ptrtoint ptr %4 to i64
  %19 = and i64 %18, 1
  %.not14 = icmp eq i64 %19, 0
  br i1 %.not14, label %20, label %lean_dec.exit

20:                                               ; preds = %lean_dec.exit10
  %21 = load i32, ptr %4, align 4, !tbaa !8
  %22 = icmp sgt i32 %21, 1
  br i1 %22, label %23, label %25, !prof !11

23:                                               ; preds = %20
  %24 = add nsw i32 %21, -1
  store i32 %24, ptr %4, align 4, !tbaa !8
  br label %lean_dec.exit

25:                                               ; preds = %20
  %.not.i11 = icmp eq i32 %21, 0
  br i1 %.not.i11, label %lean_dec.exit, label %26

26:                                               ; preds = %25
  tail call void @lean_dec_ref_cold(ptr noundef nonnull %4) #4
  br label %lean_dec.exit

lean_dec.exit:                                    ; preds = %26, %25, %23, %lean_dec.exit10
  %.val.i.i.i = load i32, ptr %1, align 4, !tbaa !8
  %27 = icmp eq i32 %.val.i.i.i, 1
  br i1 %27, label %lean_ensure_exclusive_array.exit.i.i, label %28

28:                                               ; preds = %lean_dec.exit
  %29 = tail call ptr @lean_copy_expand_array(ptr noundef nonnull %1, i1 noundef zeroext false) #4
  br label %lean_ensure_exclusive_array.exit.i.i

lean_ensure_exclusive_array.exit.i.i:             ; preds = %28, %lean_dec.exit
  %.0.i.i.i = phi ptr [ %29, %28 ], [ %1, %lean_dec.exit ]
  %30 = getelementptr inbounds nuw i8, ptr %.0.i.i.i, i64 24
  %31 = getelementptr inbounds nuw ptr, ptr %30, i64 %.val13
  %32 = load ptr, ptr %31, align 8, !tbaa !4
  %33 = ptrtoint ptr %32 to i64
  %34 = and i64 %33, 1
  %.not.i.i = icmp eq i64 %34, 0
  br i1 %.not.i.i, label %35, label %l_Array_mapMUnsafe_map___at_Lean_Meta_MatcherApp_transform___spec__4___rarg___lambda__1.exit

35:                                               ; preds = %lean_ensure_exclusive_array.exit.i.i
  %36 = load i32, ptr %32, align 4, !tbaa !8
  %37 = icmp sgt i32 %36, 1
  br i1 %37, label %38, label %40, !prof !11

38:                                               ; preds = %35
  %39 = add nsw i32 %36, -1
  store i32 %39, ptr %32, align 4, !tbaa !8
  br label %l_Array_mapMUnsafe_map___at_Lean_Meta_MatcherApp_transform___spec__4___rarg___lambda__1.exit

40:                                               ; preds = %35
  %.not.i.i.i = icmp eq i32 %36, 0
  br i1 %.not.i.i.i, label %l_Array_mapMUnsafe_map___at_Lean_Meta_MatcherApp_transform___spec__4___rarg___lambda__1.exit, label %41

41:                                               ; preds = %40
  tail call void @lean_dec_ref_cold(ptr noundef nonnull %32) #4
  br label %l_Array_mapMUnsafe_map___at_Lean_Meta_MatcherApp_transform___spec__4___rarg___lambda__1.exit

l_Array_mapMUnsafe_map___at_Lean_Meta_MatcherApp_transform___spec__4___rarg___lambda__1.exit: ; preds = %lean_ensure_exclusive_array.exit.i.i, %38, %40, %41
  %42 = add i64 %.val13, 1
  store ptr %5, ptr %31, align 8, !tbaa !4
  %43 = tail call ptr @l_Array_mapMUnsafe_map___at_Lean_Meta_MatcherApp_transform___spec__4___rarg(ptr noundef %2, ptr noundef %3, i64 noundef %.val, i64 noundef %42, ptr noundef nonnull %.0.i.i.i)
  ret ptr %43
}